target datalayout = "e-m:e-p270:32:32-p271:32:32-p272:64:64-i64:64-i128:128-f80:128-n8:16:32:64-S128"
target triple = "x86_64-pc-linux-gnu"

%struct.slurm_conf_t = type { i64, ptr, i16, ptr, ptr, ptr, ptr, ptr, i16, ptr, ptr, ptr, ptr, ptr, ptr, ptr, i16, ptr, ptr, ptr, ptr, i16, ptr, ptr, ptr, i64, ptr, ptr, ptr, ptr, i16, ptr, ptr, i16, i32, ptr, i32, ptr, i32, i32, ptr, ptr, i64, i64, ptr, i16, i16, ptr, i32, i32, ptr, i32, ptr, i32, i16, i16, i16, ptr, i16, i16, ptr, ptr, i32, i16, i16, ptr, i32, i16, ptr, ptr, ptr, ptr, i16, ptr, ptr, ptr, ptr, i32, ptr, ptr, ptr, ptr, i16, i16, ptr, i32, i32, i32, i16, i16, ptr, ptr, i16, ptr, ptr, i32, i32, i32, i32, i32, i64, i32, i32, i16, ptr, ptr, i32, ptr, ptr, ptr, i16, i32, ptr, ptr, i16, ptr, ptr, i32, i16, ptr, ptr, ptr, ptr, i32, i32, i16, i16, i32, ptr, i16, ptr, i32, i32, i32, i32, i32, i32, ptr, i16, ptr, ptr, i32, i16, ptr, i32, i16, i16, ptr, ptr, ptr, i16, ptr, ptr, ptr, ptr, i16, i16, ptr, i16, ptr, i16, ptr, i16, ptr, i16, ptr, ptr, ptr, ptr, i16, ptr, ptr, ptr, i32, ptr, i32, ptr, ptr, i16, ptr, ptr, i32, i16, ptr, ptr, i16, i16, ptr, i16, ptr, ptr, ptr, i32, ptr, i16, i16, ptr, ptr, ptr, ptr, ptr, ptr, ptr, ptr, i16, i32, i16, ptr, ptr, ptr, ptr, i32, ptr, ptr, ptr, i16, ptr, ptr, ptr, i16, ptr, i16, ptr, i16, i16, ptr }
%struct.slurm_msg = type { %struct.sockaddr_storage, ptr, i32, i32, i32, i8, i32, i8, i32, ptr, ptr, i32, ptr, ptr, i16, i8, i16, i16, %struct.forward, ptr, %struct.sockaddr_storage, ptr }
%struct.forward = type { %struct.slurm_node_alias_addrs_t, i16, i16, ptr, i32, i16, i16 }
%struct.slurm_node_alias_addrs_t = type { i64, ptr, ptr, i32, ptr }
%struct.sockaddr_storage = type { i16, [118 x i8], i64 }
%struct.timeval = type { i64, i64 }
%struct.controller_ping_t = type { ptr, i8, i64, i32 }

@slurm_conf = external global %struct.slurm_conf_t, align 8
@.str = private unnamed_addr constant [14 x i8] c"reconfigure.c\00", align 1
@__func__.ping_all_controllers = private unnamed_addr constant [21 x i8] c"ping_all_controllers\00", align 1

; Function Attrs: nounwind uwtable
define dso_local i32 @slurm_ping(i32 noundef %0) #0 {
  %2 = alloca i32, align 4
  %3 = alloca i32, align 4
  %4 = alloca %struct.slurm_msg, align 8
  store i32 %0, ptr %2, align 4
  call void @llvm.lifetime.start.p0(i64 4, ptr %3) #6
  call void @llvm.lifetime.start.p0(i64 424, ptr %4) #6
  call void @slurm_msg_t_init(ptr noundef %4)
  %5 = getelementptr inbounds nuw %struct.slurm_msg, ptr %4, i32 0, i32 16
  store i16 1008, ptr %5, align 4
  %6 = load i32, ptr %2, align 4
  %7 = call i32 @_send_message_controller(i32 noundef %6, ptr noundef %4)
  store i32 %7, ptr %3, align 4
  %8 = load i32, ptr %3, align 4
  call void @llvm.lifetime.end.p0(i64 424, ptr %4) #6
  call void @llvm.lifetime.end.p0(i64 4, ptr %3) #6
  ret i32 %8
}

; Function Attrs: nounwind uwtable
define dso_local ptr @ping_all_controllers() #0 {
  %1 = alloca ptr, align 8
  %2 = alloca i32, align 4
  %3 = alloca %struct.timeval, align 8
  %4 = alloca %struct.timeval, align 8
  %5 = alloca [20 x i8], align 16
  %6 = alloca i64, align 8
  call void @llvm.lifetime.start.p0(i64 8, ptr %1) #6
  %7 = load i32, ptr getelementptr inbounds nuw (%struct.slurm_conf_t, ptr @slurm_conf, i32 0, i32 36), align 8
  %8 = add i32 %7, 1
  %9 = zext i32 %8 to i64
  %10 = call ptr @slurm_xcalloc(i64 noundef %9, i64 noundef 32, i1 noundef zeroext true, i1 noundef zeroext false, ptr noundef @.str, i32 noundef 101, ptr noundef @__func__.ping_all_controllers)
  store ptr %10, ptr %1, align 8
  call void @llvm.lifetime.start.p0(i64 4, ptr %2) #6
  store i32 0, ptr %2, align 4
  br label %11

11:                                               ; preds = %55, %0
  %12 = load i32, ptr %2, align 4
  %13 = load i32, ptr getelementptr inbounds nuw (%struct.slurm_conf_t, ptr @slurm_conf, i32 0, i32 36), align 8
  %14 = icmp ult i32 %12, %13
  br i1 %14, label %16, label %15

15:                                               ; preds = %11
  call void @llvm.lifetime.end.p0(i64 4, ptr %2) #6
  br label %58

16:                                               ; preds = %11
  call void @llvm.lifetime.start.p0(i64 16, ptr %3) #6
  call void @llvm.lifetime.start.p0(i64 16, ptr %4) #6
  call void @llvm.lifetime.start.p0(i64 20, ptr %5) #6
  call void @llvm.memset.p0.i64(ptr align 16 %5, i8 0, i64 20, i1 false)
  call void @llvm.lifetime.start.p0(i64 8, ptr %6) #6
  %17 = load ptr, ptr getelementptr inbounds nuw (%struct.slurm_conf_t, ptr @slurm_conf, i32 0, i32 37), align 8
  %18 = load i32, ptr %2, align 4
  %19 = sext i32 %18 to i64
  %20 = getelementptr inbounds ptr, ptr %17, i64 %19
  %21 = load ptr, ptr %20, align 8
  %22 = load ptr, ptr %1, align 8
  %23 = load i32, ptr %2, align 4
  %24 = sext i32 %23 to i64
  %25 = getelementptr inbounds %struct.controller_ping_t, ptr %22, i64 %24
  %26 = getelementptr inbounds nuw %struct.controller_ping_t, ptr %25, i32 0, i32 0
  store ptr %21, ptr %26, align 8
  %27 = load i32, ptr %2, align 4
  %28 = load ptr, ptr %1, align 8
  %29 = load i32, ptr %2, align 4
  %30 = sext i32 %29 to i64
  %31 = getelementptr inbounds %struct.controller_ping_t, ptr %28, i64 %30
  %32 = getelementptr inbounds nuw %struct.controller_ping_t, ptr %31, i32 0, i32 3
  store i32 %27, ptr %32, align 8
  %33 = call i32 @gettimeofday(ptr noundef %3, ptr noundef null) #6
  %34 = load i32, ptr %2, align 4
  %35 = call i32 @slurm_ping(i32 noundef %34)
  %36 = icmp ne i32 %35, 0
  %37 = xor i1 %36, true
  %38 = load ptr, ptr %1, align 8
  %39 = load i32, ptr %2, align 4
  %40 = sext i32 %39 to i64
  %41 = getelementptr inbounds %struct.controller_ping_t, ptr %38, i64 %40
  %42 = getelementptr inbounds nuw %struct.controller_ping_t, ptr %41, i32 0, i32 1
  %43 = zext i1 %37 to i8
  store i8 %43, ptr %42, align 8
  br label %44

44:                                               ; preds = %16
  %45 = call i32 @gettimeofday(ptr noundef %4, ptr noundef null) #6
  %46 = getelementptr inbounds [20 x i8], ptr %5, i64 0, i64 0
  call void @slurm_diff_tv_str(ptr noundef %3, ptr noundef %4, ptr noundef %46, i32 noundef 20, ptr noundef null, i64 noundef 0, ptr noundef %6)
  br label %47

47:                                               ; preds = %44
  br label %48

48:                                               ; preds = %47
  %49 = load i64, ptr %6, align 8
  %50 = load ptr, ptr %1, align 8
  %51 = load i32, ptr %2, align 4
  %52 = sext i32 %51 to i64
  %53 = getelementptr inbounds %struct.controller_ping_t, ptr %50, i64 %52
  %54 = getelementptr inbounds nuw %struct.controller_ping_t, ptr %53, i32 0, i32 2
  store i64 %49, ptr %54, align 8
  call void @llvm.lifetime.end.p0(i64 8, ptr %6) #6
  call void @llvm.lifetime.end.p0(i64 20, ptr %5) #6
  call void @llvm.lifetime.end.p0(i64 16, ptr %4) #6
  call void @llvm.lifetime.end.p0(i64 16, ptr %3) #6
  br label %55

55:                                               ; preds = %48
  %56 = load i32, ptr %2, align 4
  %57 = add nsw i32 %56, 1
  store i32 %57, ptr %2, align 4
  br label %11, !llvm.loop !8

58:                                               ; preds = %15
  %59 = load ptr, ptr %1, align 8
  call void @llvm.lifetime.end.p0(i64 8, ptr %1) #6
  ret ptr %59
}