; Function Attrs: nounwind uwtable
define dso_local ptr @ping_all_controllers() local_unnamed_addr #0 {
  %1 = alloca %struct.slurm_msg, align 8
  %2 = alloca %struct.timeval, align 8
  %3 = alloca %struct.timeval, align 8
  %4 = alloca [20 x i8], align 16
  %5 = alloca i64, align 8
  %6 = load i32, ptr getelementptr inbounds nuw (i8, ptr @slurm_conf, i64 280), align 8
  %7 = add i32 %6, 1
  %8 = zext i32 %7 to i64
  %9 = tail call ptr @slurm_xcalloc(i64 noundef %8, i64 noundef 32, i1 noundef zeroext true, i1 noundef zeroext false, ptr noundef nonnull @.str, i32 noundef 101, ptr noundef nonnull @__func__.ping_all_controllers) #6
  %10 = load i32, ptr getelementptr inbounds nuw (i8, ptr @slurm_conf, i64 280), align 8
  %.not14 = icmp eq i32 %10, 0
  br i1 %.not14, label %._crit_edge, label %.lr.ph

.lr.ph:                                           ; preds = %0
  %11 = getelementptr inbounds nuw i8, ptr %1, i64 212
  br label %12

._crit_edge:                                      ; preds = %12, %0
  ret ptr %9

12:                                               ; preds = %.lr.ph, %12
  %indvars.iv = phi i64 [ 0, %.lr.ph ], [ %indvars.iv.next, %12 ]
  call void @llvm.lifetime.start.p0(i64 16, ptr nonnull %2) #6
  call void @llvm.lifetime.start.p0(i64 16, ptr nonnull %3) #6
  call void @llvm.lifetime.start.p0(i64 20, ptr nonnull %4) #6
  call void @llvm.memset.p0.i64(ptr noundef nonnull align 16 dereferenceable(20) %4, i8 0, i64 20, i1 false)
  call void @llvm.lifetime.start.p0(i64 8, ptr nonnull %5) #6
  %13 = load ptr, ptr getelementptr inbounds nuw (i8, ptr @slurm_conf, i64 288), align 8
  %14 = getelementptr inbounds nuw ptr, ptr %13, i64 %indvars.iv
  %15 = load ptr, ptr %14, align 8
  %16 = getelementptr inbounds nuw %struct.controller_ping_t, ptr %9, i64 %indvars.iv
  store ptr %15, ptr %16, align 8
  %17 = getelementptr inbounds nuw i8, ptr %16, i64 24
  %18 = trunc nuw nsw i64 %indvars.iv to i32
  store i32 %18, ptr %17, align 8
  %19 = call i32 @gettimeofday(ptr noundef nonnull %2, ptr noundef null) #6
  call void @llvm.lifetime.start.p0(i64 424, ptr nonnull %1) #6
  call void @slurm_msg_t_init(ptr noundef nonnull %1) #6
  store i16 1008, ptr %11, align 4
  %20 = call fastcc range(i32 -1, 1803) i32 @_send_message_controller(i32 noundef %18, ptr noundef %1)
  call void @llvm.lifetime.end.p0(i64 424, ptr nonnull %1) #6
  %.not = icmp eq i32 %20, 0
  %21 = getelementptr inbounds nuw i8, ptr %16, i64 8
  %22 = zext i1 %.not to i8
  store i8 %22, ptr %21, align 8
  %23 = call i32 @gettimeofday(ptr noundef nonnull %3, ptr noundef null) #6
  call void @slurm_diff_tv_str(ptr noundef nonnull %2, ptr noundef nonnull %3, ptr noundef nonnull %4, i32 noundef 20, ptr noundef null, i64 noundef 0, ptr noundef nonnull %5) #6
  %24 = load i64, ptr %5, align 8
  %25 = getelementptr inbounds nuw i8, ptr %16, i64 16
  store i64 %24, ptr %25, align 8
  call void @llvm.lifetime.end.p0(i64 8, ptr nonnull %5) #6
  call void @llvm.lifetime.end.p0(i64 20, ptr nonnull %4) #6
  call void @llvm.lifetime.end.p0(i64 16, ptr nonnull %3) #6
  call void @llvm.lifetime.end.p0(i64 16, ptr nonnull %2) #6
  %indvars.iv.next = add nuw nsw i64 %indvars.iv, 1
  %26 = load i32, ptr getelementptr inbounds nuw (i8, ptr @slurm_conf, i64 280), align 8
  %27 = zext i32 %26 to i64
  %28 = icmp samesign ult i64 %indvars.iv.next, %27
  br i1 %28, label %12, label %._crit_edge, !llvm.loop !8
}